; Function Attrs: mustprogress uwtable
define hidden void @_ZN5zxing6qrcode17FormatInformation23decodeFormatInformationEii(ptr dead_on_unwind noalias writable writeonly sret(%"class.zxing::Ref") align 8 captures(none) %0, i32 noundef %1, i32 noundef %2) local_unnamed_addr #0 align 2 personality ptr @__gxx_personality_v0 {
  %4 = alloca %"class.zxing::Ref", align 8
  call void @llvm.lifetime.start.p0(i64 8, ptr nonnull %4) #11
  call void @_ZN5zxing6qrcode17FormatInformation25doDecodeFormatInformationEii(ptr dead_on_unwind nonnull writable sret(%"class.zxing::Ref") align 8 %4, i32 noundef %1, i32 noundef %2)
  %5 = load ptr, ptr %4, align 8, !tbaa !19
  %.not = icmp eq ptr %5, null
  br i1 %.not, label %6, label %10

6:                                                ; preds = %3
  %7 = load i32, ptr @_ZN5zxing6qrcode17FormatInformation19FORMAT_INFO_MASK_QRE, align 4, !tbaa !18
  %8 = xor i32 %7, %1
  %9 = xor i32 %7, %2
  tail call void @_ZN5zxing6qrcode17FormatInformation25doDecodeFormatInformationEii(ptr dead_on_unwind writable sret(%"class.zxing::Ref") align 8 %0, i32 noundef %8, i32 noundef %9)
  br label %_ZN5zxing3RefINS_6qrcode17FormatInformationEED2Ev.exit6

10:                                               ; preds = %3
  %11 = getelementptr inbounds nuw i8, ptr %5, i64 8
  %12 = load i32, ptr %11, align 8, !tbaa !3
  store ptr %5, ptr %0, align 8, !tbaa !19
  %13 = icmp eq i32 %12, 0
  br i1 %13, label %14, label %_ZN5zxing3RefINS_6qrcode17FormatInformationEED2Ev.exit6

14:                                               ; preds = %10
  store i32 -559026175, ptr %11, align 8, !tbaa !3
  %15 = load ptr, ptr %5, align 8, !tbaa !8
  %16 = getelementptr inbounds nuw i8, ptr %15, i64 8
  %17 = load ptr, ptr %16, align 8
  tail call void %17(ptr noundef nonnull align 8 dereferenceable(12) %5) #11
  br label %_ZN5zxing3RefINS_6qrcode17FormatInformationEED2Ev.exit6

_ZN5zxing3RefINS_6qrcode17FormatInformationEED2Ev.exit6: ; preds = %6, %10, %14
  call void @llvm.lifetime.end.p0(i64 8, ptr nonnull %4) #11
  ret void
}